; Function Attrs: mustprogress uwtable
define void @_ZN7jsonnet8internal23jsonnet_static_analysisEPNS0_3ASTE(ptr noundef %0) local_unnamed_addr #4 personality ptr @__gxx_personality_v0 {
  %2 = alloca %"class.std::set", align 8
  %3 = alloca %"class.std::set", align 8
  call void @llvm.lifetime.start.p0(i64 48, ptr nonnull %3) #23
  %4 = getelementptr inbounds nuw i8, ptr %3, i64 8
  %5 = getelementptr inbounds nuw i8, ptr %3, i64 16
  %6 = getelementptr inbounds nuw i8, ptr %3, i64 24
  call void @llvm.memset.p0.i64(ptr noundef nonnull align 8 dereferenceable(24) %3, i8 0, i64 24, i1 false)
  store ptr %4, ptr %6, align 8, !tbaa !15
  %7 = getelementptr inbounds nuw i8, ptr %3, i64 32
  store ptr %4, ptr %7, align 8, !tbaa !16
  %8 = getelementptr inbounds nuw i8, ptr %3, i64 40
  store i64 0, ptr %8, align 8, !tbaa !17
  invoke fastcc void @_ZN7jsonnet8internalL15static_analysisEPNS0_3ASTEbRKSt3setIPKNS0_10IdentifierESt4lessIS6_ESaIS6_EE(ptr dead_on_unwind noalias writable align 8 %2, ptr noundef %0, i1 noundef zeroext false, ptr noundef nonnull align 8 dereferenceable(48) %3)
          to label %9 unwind label %19

9:                                                ; preds = %1
  %10 = getelementptr inbounds nuw i8, ptr %2, i64 16
  %11 = load ptr, ptr %10, align 8, !tbaa !6
  invoke void @_ZNSt8_Rb_treeIPKN7jsonnet8internal10IdentifierES4_St9_IdentityIS4_ESt4lessIS4_ESaIS4_EE8_M_eraseEPSt13_Rb_tree_nodeIS4_E(ptr noundef nonnull align 8 dereferenceable(48) %2, ptr noundef %11)
          to label %_ZNSt3setIPKN7jsonnet8internal10IdentifierESt4lessIS4_ESaIS4_EED2Ev.exit unwind label %12

12:                                               ; preds = %9
  %13 = landingpad { ptr, i32 }
          catch ptr null
  %14 = extractvalue { ptr, i32 } %13, 0
  call void @__clang_call_terminate(ptr %14) #22
  unreachable

_ZNSt3setIPKN7jsonnet8internal10IdentifierESt4lessIS4_ESaIS4_EED2Ev.exit: ; preds = %9
  %15 = load ptr, ptr %5, align 8, !tbaa !6
  invoke void @_ZNSt8_Rb_treeIPKN7jsonnet8internal10IdentifierES4_St9_IdentityIS4_ESt4lessIS4_ESaIS4_EE8_M_eraseEPSt13_Rb_tree_nodeIS4_E(ptr noundef nonnull align 8 dereferenceable(48) %3, ptr noundef %15)
          to label %_ZNSt3setIPKN7jsonnet8internal10IdentifierESt4lessIS4_ESaIS4_EED2Ev.exit2 unwind label %16

16:                                               ; preds = %_ZNSt3setIPKN7jsonnet8internal10IdentifierESt4lessIS4_ESaIS4_EED2Ev.exit
  %17 = landingpad { ptr, i32 }
          catch ptr null
  %18 = extractvalue { ptr, i32 } %17, 0
  call void @__clang_call_terminate(ptr %18) #22
  unreachable

_ZNSt3setIPKN7jsonnet8internal10IdentifierESt4lessIS4_ESaIS4_EED2Ev.exit2: ; preds = %_ZNSt3setIPKN7jsonnet8internal10IdentifierESt4lessIS4_ESaIS4_EED2Ev.exit
  call void @llvm.lifetime.end.p0(i64 48, ptr nonnull %3) #23
  ret void

19:                                               ; preds = %1
  %20 = landingpad { ptr, i32 }
          cleanup
  call void @_ZNSt3setIPKN7jsonnet8internal10IdentifierESt4lessIS4_ESaIS4_EED2Ev(ptr noundef nonnull align 8 dereferenceable(48) %3) #23
  call void @llvm.lifetime.end.p0(i64 48, ptr nonnull %3) #23
  resume { ptr, i32 } %20
}